; Function Attrs: mustprogress uwtable
define hidden void @_ZN3sat3sccC2ERNS_6solverERK10params_ref(ptr noundef nonnull align 8 dereferenceable(104) %this, ptr noundef nonnull align 8 dereferenceable(4408) %s, ptr noundef nonnull align 8 dereferenceable(8) %p) unnamed_addr #3 align 2 personality ptr @__gxx_personality_v0 {
entry:
  %p.i = alloca %struct.sat_scc_params, align 8
  store ptr %s, ptr %this, align 8
  %m_big = getelementptr inbounds i8, ptr %this, i64 24
  %m_rand = getelementptr inbounds i8, ptr %s, i64 2356
  tail call void @_ZN3sat3bigC1ER10random_gen(ptr noundef nonnull align 8 dereferenceable(80) %m_big, ptr noundef nonnull align 4 dereferenceable(4) %m_rand)
  %m_num_elim.i = getelementptr inbounds i8, ptr %this, i64 12
  store i32 0, ptr %m_num_elim.i, align 4
  %m_num_elim_bin.i = getelementptr inbounds i8, ptr %this, i64 16
  store i32 0, ptr %m_num_elim_bin.i, align 8
  call void @llvm.lifetime.start.p0(i64 16, ptr nonnull %p.i)
  store ptr %p, ptr %p.i, align 8
  %g.i.i = getelementptr inbounds i8, ptr %p.i, i64 8
  invoke void @_ZN7gparams10get_moduleEPKc(ptr nonnull sret(%class.params_ref) align 8 %g.i.i, ptr noundef nonnull @.str.10)
          to label %.noexc unwind label %lpad

.noexc:                                           ; preds = %entry
  %0 = load ptr, ptr %p.i, align 8
  %call.i2.i = invoke noundef zeroext i1 @_ZNK10params_ref8get_boolEPKcRKS_b(ptr noundef nonnull align 8 dereferenceable(8) %0, ptr noundef nonnull @.str.11, ptr noundef nonnull align 8 dereferenceable(8) %g.i.i, i1 noundef zeroext true)
          to label %invoke.cont.i unwind label %lpad.i

invoke.cont.i:                                    ; preds = %.noexc
  %m_scc.i = getelementptr inbounds i8, ptr %this, i64 8
  %frombool.i = zext i1 %call.i2.i to i8
  store i8 %frombool.i, ptr %m_scc.i, align 8
  %1 = load ptr, ptr %p.i, align 8
  %call.i4.i = invoke noundef zeroext i1 @_ZNK10params_ref8get_boolEPKcRKS_b(ptr noundef nonnull align 8 dereferenceable(8) %1, ptr noundef nonnull @.str.12, ptr noundef nonnull align 8 dereferenceable(8) %g.i.i, i1 noundef zeroext true)
          to label %invoke.cont2 unwind label %lpad.i

lpad.i:                                           ; preds = %invoke.cont.i, %.noexc
  %2 = landingpad { ptr, i32 }
          cleanup
  call void @_ZN10params_refD1Ev(ptr noundef nonnull align 8 dereferenceable(8) %g.i.i) #14
  br label %lpad.body

invoke.cont2:                                     ; preds = %invoke.cont.i
  %m_scc_tr.i = getelementptr inbounds i8, ptr %this, i64 9
  %frombool4.i = zext i1 %call.i4.i to i8
  store i8 %frombool4.i, ptr %m_scc_tr.i, align 1
  call void @_ZN10params_refD1Ev(ptr noundef nonnull align 8 dereferenceable(8) %g.i.i) #14
  call void @llvm.lifetime.end.p0(i64 16, ptr nonnull %p.i)
  ret void

lpad:                                             ; preds = %entry
  %3 = landingpad { ptr, i32 }
          cleanup
  br label %lpad.body

lpad.body:                                        ; preds = %lpad.i, %lpad
  %eh.lpad-body = phi { ptr, i32 } [ %3, %lpad ], [ %2, %lpad.i ]
  call void @_ZN3sat3bigD2Ev(ptr noundef nonnull align 8 dereferenceable(80) %m_big) #14
  resume { ptr, i32 } %eh.lpad-body
}